Certificate:
    Data:
        Version: 3 (0x2)
        Serial Number: 1 (0x1)
    Signature Algorithm: sha1WithRSAEncryption
        Issuer: CN=MyOwn Root Certificate Authority, ST=BC, C=CA/emailAddress=kelcey.damage@payfirma.com, O=Payfirma, OU=Tech Department
        Validity
            Not Before: Aug  7 23:51:53 2014 GMT
            Not After : Aug  6 23:51:53 2019 GMT
        Subject: CN=Payfirma, ST=BC, C=CA/emailAddress=kelcey.damage@payfirma.com, O=Payfirma, OU=Technology
        Subject Public Key Info:
            Public Key Algorithm: rsaEncryption
                Public-Key: (1024 bit)
                Modulus:
                    00:ba:a1:bb:37:d6:05:f6:50:4e:df:ea:b8:00:33:
                    8a:81:49:e1:0a:09:7f:c1:f9:44:8f:86:4b:d1:35:
                    75:71:e2:e4:25:02:58:fd:f3:b3:21:e8:7f:1e:db:
                    df:19:2e:98:95:d5:e0:0b:27:6b:ce:6a:f6:ca:f9:
                    a7:13:99:e6:64:34:6d:dd:1f:ce:43:99:0e:57:e1:
                    7d:69:c4:a2:64:16:aa:8d:c1:76:5f:dd:2e:2a:7d:
                    d5:4c:3f:11:19:bf:10:c1:14:41:7b:e2:83:a8:9c:
                    7e:93:f6:ad:f5:6e:9b:9e:6e:08:3a:d5:db:97:7e:
                    ac:a8:67:a0:48:2a:21:b9:ef
                Exponent: 65537 (0x10001)
        X509v3 extensions:
            X509v3 Basic Constraints:
                CA:FALSE
            X509v3 Key Usage:
                Digital Signature, Non Repudiation, Key Encipherment
            X509v3 Subject Alternative Name:
                DNS:8.8.4.4, DNS:8.8.8.8
    Signature Algorithm: sha1WithRSAEncryption
         1b:6a:d9:f2:a5:8a:2f:26:59:89:02:a9:a9:33:67:55:43:7f:
         ea:11:a6:48:46:54:d0:20:ab:46:94:ee:e4:bf:19:64:de:0c:
         b7:89:aa:0b:0a:23:49:a2:0e:a4:4c:74:de:85:ad:60:e1:09:
         77:c0:75:65:c5:3f:4e:e7:ae:82:49:ad:fa:14:94:36:33:1b:
         cf:e6:6e:18:24:b1:c5:0e:fe:16:29:01:93:be:0a:18:a7:c3:
         f6:85:7a:cc:58:6b:6f:3e:4d:40:24:e1:fa:b3:48:eb:20:44:
         de:b8:95:38:c8:fa:ea:a8:51:4a:9d:cb:78:83:43:99:10:36:
         4f:05:6a:57:e3:9d:14:6b:ed:fa:93:f9:e3:40:7e:12:78:03:
         67:bf:0d:75:83:0d:ba:0e:90:61:b8:ac:6c:4a:b7:f4:be:dc:
         18:b2:01:e4:b1:dd:38:16:ad:39:ca:6d:fa:7c:18:3d:d3:47:
         f7:b3:42:3e:c2:92:88:65:6f:4c:2e:8f:a6:fd:63:e5:e0:6b:
         95:71:8f:d0:e5:96:e1:b1:36:6f:ca:f0:eb:ad:3b:31:8c:46:
         55:33:6f:91:2a:22:f3:bd:b7:47:30:da:28:29:c5:4d:2e:71:
         37:b6:a2:73:ab:01:00:26:89:2a:7f:d5:97:bb:ac:bd:f5:98:
         6e:8d:de:d0
-----BEGIN CERTIFICATE-----
MIIDTTCCAjWgAwIBAgIBATANBgkqhkiG9w0BAQUFADCBnTEpMCcGA1UEAxMgTXlP
d24gUm9vdCBDZXJ0aWZpY2F0ZSBBdXRob3JpdHkxCzAJBgNVBAgTAkJDMQswCQYD
VQQGEwJDQTEpMCcGCSqGSIb3DQEJARYaa2VsY2V5LmRhbWFnZUBwYXlmaXJtYS5j
b20xETAPBgNVBAoTCFBheWZpcm1hMRgwFgYDVQQLEw9UZWNoIERlcGFydG1lbnQw
HhcNMTQwODA3MjM1MTUzWhcNMTkwODA2MjM1MTUzWjCBgDERMA8GA1UEAxMIUGF5
ZmlybWExCzAJBgNVBAgTAkJDMQswCQYDVQQGEwJDQTEpMCcGCSqGSIb3DQEJARYa
a2VsY2V5LmRhbWFnZUBwYXlmaXJtYS5jb20xETAPBgNVBAoTCFBheWZpcm1hMRMw
EQYDVQQLEwpUZWNobm9sb2d5MIGfMA0GCSqGSIb3DQEBAQUAA4GNADCBiQKBgQC6
obs31gX2UE7f6rgAM4qBSeEKCX/B+USPhkvRNXVx4uQlAlj987Mh6H8e298ZLpiV
1eALJ2vOavbK+acTmeZkNG3dH85DmQ5X4X1pxKJkFqqNwXZf3S4qfdVMPxEZvxDB
FEF74oOonH6T9q31bpuebgg61duXfqyoZ6BIKiG57wIDAQABozcwNTAJBgNVHRME
AjAAMAsGA1UdDwQEAwIF4DAbBgNVHREEFDASggc4LjguNC40ggc4LjguOC44MA0G
CSqGSIb3DQEBBQUAA4IBAQAbatnypYovJlmJAqmpM2dVQ3/qEaZIRlTQIKtGlO7k
vxlk3gy3iaoLCiNJog6kTHTeha1g4Ql3wHVlxT9O566CSa36FJQ2MxvP5m4YJLHF
Dv4WKQGTvgoYp8P2hXrMWGtvPk1AJOH6s0jrIETeuJU4yPrqqFFKnct4g0OZEDZP
BWpX450Ua+36k/njQH4SeANnvw11gw26DpBhuKxsSrf0vtwYsgHksd04Fq05ym36
fBg900f3s0I+wpKIZW9MLo+m/WPl4GuVcY/Q5ZbhsTZvyvDrrTsxjEZVM2+RKiLz
vbdHMNooKcVNLnE3tqJzqwEAJokqf9WXu6y99Zhujd7Q
-----END CERTIFICATE-----
